; Function Attrs: mustprogress nofree nounwind willreturn memory(write) uwtable
define dso_local range(i32 0, 2) i32 @geohashGetDistanceIfInRectangle(double noundef %0, double noundef %1, double noundef %2, double noundef %3, double noundef %4, double noundef %5, ptr noundef writeonly captures(none) %6) local_unnamed_addr #9 {
  %8 = fmul double %3, 0x3F91DF46A2529D39
  %9 = fmul double %5, 0x3F91DF46A2529D39
  %10 = fsub double %8, %9
  %11 = tail call double @llvm.fabs.f64(double %10)
  %12 = fmul double %11, 0x41584F6F63E51090
  %13 = fmul double %1, 5.000000e-01
  %14 = fcmp ogt double %12, %13
  br i1 %14, label %61, label %15

15:                                               ; preds = %7
  %16 = fmul double %4, 0x3F91DF46A2529D39
  %17 = fmul double %2, 0x3F91DF46A2529D39
  %18 = fsub double %17, %16
  %19 = fmul double %18, 5.000000e-01
  %20 = tail call double @sin(double noundef %19) #11, !tbaa !16
  %21 = fcmp oeq double %20, 0.000000e+00
  %22 = fsub double %9, %9
  br i1 %21, label %23, label %26

23:                                               ; preds = %15
  %24 = tail call double @llvm.fabs.f64(double %22)
  %25 = fmul double %24, 0x41584F6F63E51090
  br label %geohashGetDistance.exit

26:                                               ; preds = %15
  %27 = fmul double %22, 5.000000e-01
  %28 = tail call double @sin(double noundef %27) #11, !tbaa !16
  %29 = tail call double @cos(double noundef %9) #11, !tbaa !16
  %30 = tail call double @cos(double noundef %9) #11, !tbaa !16
  %31 = fmul double %29, %30
  %32 = fmul double %20, %31
  %33 = fmul double %20, %32
  %34 = tail call double @llvm.fmuladd.f64(double %28, double %28, double %33)
  %35 = tail call double @sqrt(double noundef %34) #11, !tbaa !16
  %36 = tail call double @asin(double noundef %35) #11, !tbaa !16
  %37 = fmul double %36, 0x41684F6F63E51090
  br label %geohashGetDistance.exit

geohashGetDistance.exit:                          ; preds = %23, %26
  %.0.i = phi double [ %25, %23 ], [ %37, %26 ]
  %38 = fmul double %0, 5.000000e-01
  %39 = fcmp ogt double %.0.i, %38
  br i1 %39, label %61, label %40

40:                                               ; preds = %geohashGetDistance.exit
  %41 = fsub double %16, %17
  %42 = fmul double %41, 5.000000e-01
  %43 = tail call double @sin(double noundef %42) #11, !tbaa !16
  %44 = fcmp oeq double %43, 0.000000e+00
  %45 = fsub double %9, %8
  br i1 %44, label %46, label %49

46:                                               ; preds = %40
  %47 = tail call double @llvm.fabs.f64(double %45)
  %48 = fmul double %47, 0x41584F6F63E51090
  br label %geohashGetDistance.exit16

49:                                               ; preds = %40
  %50 = fmul double %45, 5.000000e-01
  %51 = tail call double @sin(double noundef %50) #11, !tbaa !16
  %52 = tail call double @cos(double noundef %8) #11, !tbaa !16
  %53 = tail call double @cos(double noundef %9) #11, !tbaa !16
  %54 = fmul double %52, %53
  %55 = fmul double %43, %54
  %56 = fmul double %43, %55
  %57 = tail call double @llvm.fmuladd.f64(double %51, double %51, double %56)
  %58 = tail call double @sqrt(double noundef %57) #11, !tbaa !16
  %59 = tail call double @asin(double noundef %58) #11, !tbaa !16
  %60 = fmul double %59, 0x41684F6F63E51090
  br label %geohashGetDistance.exit16

geohashGetDistance.exit16:                        ; preds = %46, %49
  %.0.i15 = phi double [ %48, %46 ], [ %60, %49 ]
  store double %.0.i15, ptr %6, align 8, !tbaa !7
  br label %61

61:                                               ; preds = %geohashGetDistance.exit16, %geohashGetDistance.exit, %7
  %.0 = phi i32 [ 0, %7 ], [ 1, %geohashGetDistance.exit16 ], [ 0, %geohashGetDistance.exit ]
  ret i32 %.0
}